; Function Attrs: mustprogress uwtable
define noundef i32 @_ZN6icu_778RuleHalf5parseERKNS_13UnicodeStringEiiR10UErrorCode(ptr noundef nonnull align 8 dereferenceable(112) %0, ptr noundef nonnull align 8 dereferenceable(64) %1, i32 noundef %2, i32 noundef %3, ptr noundef nonnull align 4 dereferenceable(4) %4) local_unnamed_addr #1 align 2 personality ptr @__gxx_personality_v0 {
  %6 = alloca %"class.icu_77::UnicodeString", align 8
  %7 = alloca %"class.icu_77::ConstChar16Ptr", align 8
  %8 = getelementptr inbounds nuw i8, ptr %0, i64 8
  %9 = getelementptr inbounds nuw i8, ptr %0, i64 16
  %10 = load i16, ptr %9, align 8, !tbaa !44
  %11 = and i16 %10, 1
  %.not15 = icmp eq i16 %11, 0
  br i1 %.not15, label %13, label %12

12:                                               ; preds = %5
  tail call void @_ZN6icu_7713UnicodeString7unBogusEv(ptr noundef nonnull align 8 dereferenceable(64) %8)
  br label %_ZN6icu_7713UnicodeString8truncateEi.exit

13:                                               ; preds = %5
  %14 = icmp slt i16 %10, 0
  %15 = ashr i16 %10, 5
  %16 = sext i16 %15 to i32
  %17 = getelementptr inbounds nuw i8, ptr %0, i64 20
  %18 = load i32, ptr %17, align 4
  %19 = select i1 %14, i32 %18, i32 %16
  %.not16 = icmp eq i32 %19, 0
  br i1 %.not16, label %_ZN6icu_7713UnicodeString8truncateEi.exit, label %20

20:                                               ; preds = %13
  %21 = and i16 %10, 30
  store i16 %21, ptr %9, align 8, !tbaa !44
  br label %_ZN6icu_7713UnicodeString8truncateEi.exit

_ZN6icu_7713UnicodeString8truncateEi.exit:        ; preds = %12, %13, %20
  call void @llvm.lifetime.start.p0(i64 64, ptr nonnull %6) #18
  store ptr @_ZL11ILLEGAL_TOP, ptr %7, align 8, !tbaa !55
  invoke void @_ZN6icu_7713UnicodeStringC1EaNS_14ConstChar16PtrEi(ptr noundef nonnull align 8 dereferenceable(64) %6, i8 noundef signext 1, ptr noundef nonnull %7, i32 noundef -1)
          to label %22 unwind label %38

22:                                               ; preds = %_ZN6icu_7713UnicodeString8truncateEi.exit
  %23 = invoke noundef i32 @_ZN6icu_778RuleHalf12parseSectionERKNS_13UnicodeStringEiiRS1_S3_aR10UErrorCode(ptr noundef nonnull align 8 dereferenceable(112) %0, ptr noundef nonnull align 8 dereferenceable(64) %1, i32 noundef %2, i32 noundef %3, ptr noundef nonnull align 8 dereferenceable(64) %8, ptr noundef nonnull align 8 dereferenceable(64) %6, i8 noundef signext 0, ptr noundef nonnull align 4 dereferenceable(4) %4)
          to label %24 unwind label %40

24:                                               ; preds = %22
  call void @_ZN6icu_7713UnicodeStringD1Ev(ptr noundef nonnull align 8 dereferenceable(64) %6) #18
  %25 = load ptr, ptr %7, align 8, !tbaa !55
  call void asm sideeffect "", "rm,~{memory},~{dirflag},~{fpsr},~{flags}"(ptr %25) #18, !srcloc !58
  call void @llvm.lifetime.end.p0(i64 64, ptr nonnull %6) #18
  %26 = getelementptr inbounds nuw i8, ptr %0, i64 84
  %27 = load i32, ptr %26, align 4, !tbaa !59
  %28 = icmp sgt i32 %27, 0
  br i1 %28, label %29, label %44

29:                                               ; preds = %24
  %30 = getelementptr inbounds nuw i8, ptr %0, i64 72
  %31 = load i32, ptr %30, align 8, !tbaa !48
  %32 = getelementptr inbounds nuw i8, ptr %0, i64 88
  %33 = load i32, ptr %32, align 8, !tbaa !60
  %.not = icmp eq i32 %31, %33
  br i1 %.not, label %44, label %34

34:                                               ; preds = %29
  %35 = getelementptr inbounds nuw i8, ptr %0, i64 104
  %36 = load ptr, ptr %35, align 8, !tbaa !61
  %37 = call noundef i32 @_ZN6icu_7720TransliteratorParser11syntaxErrorE10UErrorCodeRKNS_13UnicodeStringEiRS1_(ptr noundef nonnull align 8 dereferenceable(498) %36, i32 noundef 65545, ptr noundef nonnull align 8 dereferenceable(64) %1, i32 noundef %2, ptr noundef nonnull align 4 dereferenceable(4) %4)
  br label %44

38:                                               ; preds = %_ZN6icu_7713UnicodeString8truncateEi.exit
  %39 = landingpad { ptr, i32 }
          cleanup
  br label %42

40:                                               ; preds = %22
  %41 = landingpad { ptr, i32 }
          cleanup
  call void @_ZN6icu_7713UnicodeStringD1Ev(ptr noundef nonnull align 8 dereferenceable(64) %6) #18
  br label %42

42:                                               ; preds = %40, %38
  %.pn = phi { ptr, i32 } [ %41, %40 ], [ %39, %38 ]
  %43 = load ptr, ptr %7, align 8, !tbaa !55
  call void asm sideeffect "", "rm,~{memory},~{dirflag},~{fpsr},~{flags}"(ptr %43) #18, !srcloc !58
  call void @llvm.lifetime.end.p0(i64 64, ptr nonnull %6) #18
  resume { ptr, i32 } %.pn

44:                                               ; preds = %24, %29, %34
  %.013 = phi i32 [ %2, %34 ], [ %23, %29 ], [ %23, %24 ]
  ret i32 %.013
}